; Function Attrs: mustprogress nounwind uwtable
define internal void @_ZNSt23_Sp_counted_ptr_inplaceIN12_GLOBAL__N_115cmQtAutoMocUicT11SourceFileTESaIvELN9__gnu_cxx12_Lock_policyE2EE10_M_disposeEv(ptr noundef nonnull align 8 dereferenceable(112) %0) unnamed_addr #5 align 2 personality ptr @__gxx_personality_v0 {
  %2 = getelementptr inbounds i8, ptr %0, i64 72
  tail call void @_ZNSt7__cxx1112basic_stringIcSt11char_traitsIcESaIcEED1Ev(ptr noundef nonnull align 8 dereferenceable(32) %2) #23
  %3 = getelementptr inbounds i8, ptr %0, i64 64
  %.val.i.i.i = load ptr, ptr %3, align 8
  %.not.i.i.i.i.i.i = icmp eq ptr %.val.i.i.i, null
  br i1 %.not.i.i.i.i.i.i, label %_ZNSt16allocator_traitsISaIvEE7destroyIN12_GLOBAL__N_115cmQtAutoMocUicT11SourceFileTEEEvRS0_PT_.exit, label %4

4:                                                ; preds = %1
  %5 = getelementptr inbounds i8, ptr %.val.i.i.i, i64 8
  %6 = load atomic i64, ptr %5 acquire, align 8
  %7 = icmp eq i64 %6, 4294967297
  %8 = trunc i64 %6 to i32
  br i1 %7, label %9, label %14

9:                                                ; preds = %4
  store i32 0, ptr %5, align 8
  %10 = getelementptr inbounds i8, ptr %.val.i.i.i, i64 12
  store i32 0, ptr %10, align 4
  %11 = load ptr, ptr %.val.i.i.i, align 8
  %12 = getelementptr inbounds i8, ptr %11, i64 16
  %13 = load ptr, ptr %12, align 8
  tail call void %13(ptr noundef nonnull align 8 dereferenceable(16) %.val.i.i.i) #23
  br label %_ZNSt16_Sp_counted_baseILN9__gnu_cxx12_Lock_policyE2EE24_M_release_last_use_coldEv.exit.sink.split.i.i.i.i.i.i.i

14:                                               ; preds = %4
  %15 = load i8, ptr @__libc_single_threaded, align 1
  %.not.i.i.i.i.i.i.i = icmp eq i8 %15, 0
  br i1 %.not.i.i.i.i.i.i.i, label %18, label %16

16:                                               ; preds = %14
  %17 = add nsw i32 %8, -1
  store i32 %17, ptr %5, align 4
  br label %20

18:                                               ; preds = %14
  %19 = atomicrmw volatile add ptr %5, i32 -1 acq_rel, align 4
  br label %20

20:                                               ; preds = %18, %16
  %.0.i.i.i.i.i.i.i = phi i32 [ %8, %16 ], [ %19, %18 ]
  %21 = icmp eq i32 %.0.i.i.i.i.i.i.i, 1
  br i1 %21, label %22, label %_ZNSt16allocator_traitsISaIvEE7destroyIN12_GLOBAL__N_115cmQtAutoMocUicT11SourceFileTEEEvRS0_PT_.exit

22:                                               ; preds = %20
  %23 = load ptr, ptr %.val.i.i.i, align 8
  %24 = getelementptr inbounds i8, ptr %23, i64 16
  %25 = load ptr, ptr %24, align 8
  tail call void %25(ptr noundef nonnull align 8 dereferenceable(16) %.val.i.i.i) #23
  %26 = getelementptr inbounds i8, ptr %.val.i.i.i, i64 12
  %27 = load i8, ptr @__libc_single_threaded, align 1
  %.not.i.i.i.i.i.i.i.i.i = icmp eq i8 %27, 0
  br i1 %.not.i.i.i.i.i.i.i.i.i, label %31, label %28

28:                                               ; preds = %22
  %29 = load i32, ptr %26, align 4
  %30 = add nsw i32 %29, -1
  store i32 %30, ptr %26, align 4
  br label %33

31:                                               ; preds = %22
  %32 = atomicrmw volatile add ptr %26, i32 -1 acq_rel, align 4
  br label %33

33:                                               ; preds = %31, %28
  %.0.i.i.i.i.i.i.i.i.i = phi i32 [ %29, %28 ], [ %32, %31 ]
  %34 = icmp eq i32 %.0.i.i.i.i.i.i.i.i.i, 1
  br i1 %34, label %_ZNSt16_Sp_counted_baseILN9__gnu_cxx12_Lock_policyE2EE24_M_release_last_use_coldEv.exit.sink.split.i.i.i.i.i.i.i, label %_ZNSt16allocator_traitsISaIvEE7destroyIN12_GLOBAL__N_115cmQtAutoMocUicT11SourceFileTEEEvRS0_PT_.exit

_ZNSt16_Sp_counted_baseILN9__gnu_cxx12_Lock_policyE2EE24_M_release_last_use_coldEv.exit.sink.split.i.i.i.i.i.i.i: ; preds = %33, %9
  %35 = load ptr, ptr %.val.i.i.i, align 8
  %36 = getelementptr inbounds i8, ptr %35, i64 24
  %37 = load ptr, ptr %36, align 8
  tail call void %37(ptr noundef nonnull align 8 dereferenceable(16) %.val.i.i.i) #23
  br label %_ZNSt16allocator_traitsISaIvEE7destroyIN12_GLOBAL__N_115cmQtAutoMocUicT11SourceFileTEEEvRS0_PT_.exit

_ZNSt16allocator_traitsISaIvEE7destroyIN12_GLOBAL__N_115cmQtAutoMocUicT11SourceFileTEEEvRS0_PT_.exit: ; preds = %1, %20, %33, %_ZNSt16_Sp_counted_baseILN9__gnu_cxx12_Lock_policyE2EE24_M_release_last_use_coldEv.exit.sink.split.i.i.i.i.i.i.i
  %38 = getelementptr inbounds i8, ptr %0, i64 16
  tail call void @_ZNSt7__cxx1112basic_stringIcSt11char_traitsIcESaIcEED1Ev(ptr noundef nonnull align 8 dereferenceable(32) %38) #23
  ret void
}